; Function Attrs: mustprogress nofree norecurse nosync nounwind willreturn memory(argmem: read) uwtable
define noundef double @_ZNK8QuantLib19CappedFlooredCoupon3capEv(ptr nocapture noundef nonnull readonly align 8 dereferenceable(216) %this) local_unnamed_addr #13 align 2 {
entry:
  %gearing_ = getelementptr inbounds nuw i8, ptr %this, i64 128
  %0 = load double, ptr %gearing_, align 8, !tbaa !61
  %cmp = fcmp ogt double %0, 0.000000e+00
  br i1 %cmp, label %land.lhs.true, label %if.end

land.lhs.true:                                    ; preds = %entry
  %isCapped_ = getelementptr inbounds nuw i8, ptr %this, i64 192
  %1 = load i8, ptr %isCapped_, align 8, !tbaa !64, !range !26, !noundef !27
  %loadedv = trunc nuw i8 %1 to i1
  br i1 %loadedv, label %if.then, label %if.end

if.then:                                          ; preds = %land.lhs.true
  %cap_ = getelementptr inbounds nuw i8, ptr %this, i64 200
  %2 = load double, ptr %cap_, align 8, !tbaa !67
  br label %return

if.end:                                           ; preds = %land.lhs.true, %entry
  %cmp3 = fcmp olt double %0, 0.000000e+00
  br i1 %cmp3, label %land.lhs.true4, label %return

land.lhs.true4:                                   ; preds = %if.end
  %isFloored_ = getelementptr inbounds nuw i8, ptr %this, i64 193
  %3 = load i8, ptr %isFloored_, align 1, !tbaa !66, !range !26, !noundef !27
  %loadedv5 = trunc nuw i8 %3 to i1
  br i1 %loadedv5, label %if.then6, label %return

if.then6:                                         ; preds = %land.lhs.true4
  %floor_ = getelementptr inbounds nuw i8, ptr %this, i64 208
  %4 = load double, ptr %floor_, align 8, !tbaa !68
  br label %return

return:                                           ; preds = %if.end, %land.lhs.true4, %if.then6, %if.then
  %retval.0 = phi double [ %2, %if.then ], [ %4, %if.then6 ], [ 0x47EFFFFFE0000000, %land.lhs.true4 ], [ 0x47EFFFFFE0000000, %if.end ]
  ret double %retval.0
}